target datalayout = "e-m:e-p270:32:32-p271:32:32-p272:64:64-i64:64-i128:128-f80:128-n8:16:32:64-S128"
target triple = "x86_64-unknown-linux-gnu"

%struct.config = type { ptr, %struct.cliConnInfo, ptr, i32, %struct.cliSSLconfig, i32, i32, i32, i32, i32, i32, i32, i64, i32, i32, i32, i32, i32, i32, i64, i64, ptr, ptr, i32, i32, i32, i32, ptr, ptr, i32, i32, i32, ptr, i32, i32, ptr, ptr, ptr, ptr, i32, i32, i32, i32, %union.pthread_mutex_t, %union.pthread_mutex_t, i32 }
%struct.cliConnInfo = type { ptr, i32, i32, ptr, ptr }
%struct.cliSSLconfig = type { ptr, ptr, ptr, i32, ptr, ptr, ptr, ptr }
%union.pthread_mutex_t = type { %struct.__pthread_mutex_s }
%struct.__pthread_mutex_s = type { i32, i32, i32, i32, i32, i16, i16, %struct.__pthread_internal_list }
%struct.__pthread_internal_list = type { ptr, ptr }
%struct.redisReply = type { i32, i64, double, i64, ptr, [4 x i8], i64, ptr }
%struct.redisContext = type { ptr, i32, [128 x i8], i32, i32, ptr, ptr, i32, ptr, ptr, %struct.anon, %struct.anon.0, ptr, i64, ptr, ptr, ptr, ptr }
%struct.anon = type { ptr, ptr, i32 }
%struct.anon.0 = type { ptr }

@config = internal global %struct.config zeroinitializer, align 8
@stderr = external global ptr, align 8
@.str.16420 = private unnamed_addr constant [1 x i8] zeroinitializer, align 1
@.str.16438 = private unnamed_addr constant [7 x i8] c"%s:%d\0A\00", align 1
@.str.16527 = private unnamed_addr constant [31 x i8] c"Could not connect to Redis at \00", align 1
@.str.16528 = private unnamed_addr constant [11 x i8] c"%s:%d: %s\0A\00", align 1
@.str.16529 = private unnamed_addr constant [8 x i8] c"%s: %s\0A\00", align 1
@.str.16530 = private unnamed_addr constant [42 x i8] c"Could not negotiate a TLS connection: %s\0A\00", align 1
@.str.16531 = private unnamed_addr constant [8 x i8] c"AUTH %s\00", align 1
@.str.16532 = private unnamed_addr constant [11 x i8] c"AUTH %s %s\00", align 1
@.str.16533 = private unnamed_addr constant [35 x i8] c"Node %s:%d replied with error:\0A%s\0A\00", align 1
@.str.16534 = private unnamed_addr constant [32 x i8] c"Node %s replied with error:\0A%s\0A\00", align 1
@.str.16535 = private unnamed_addr constant [35 x i8] c"ERROR: failed to fetch reply from \00", align 1
@.str.16536 = private unnamed_addr constant [4 x i8] c"%s\0A\00", align 1

; Function Attrs: nounwind uwtable
define internal ptr @getRedisContext(ptr noundef %ip, i32 noundef %port, ptr noundef %hostsocket) #0 {
entry:
  %retval = alloca ptr, align 8
  %ip.addr = alloca ptr, align 8
  %port.addr = alloca i32, align 4
  %hostsocket.addr = alloca ptr, align 8
  %ctx = alloca ptr, align 8
  %reply = alloca ptr, align 8
  %err5 = alloca ptr, align 8
  %err16 = alloca ptr, align 8
  store ptr %ip, ptr %ip.addr, align 8
  store i32 %port, ptr %port.addr, align 4
  store ptr %hostsocket, ptr %hostsocket.addr, align 8
  store ptr null, ptr %ctx, align 8
  store ptr null, ptr %reply, align 8
  %0 = load ptr, ptr %hostsocket.addr, align 8
  %cmp = icmp eq ptr %0, null
  br i1 %cmp, label %if.then, label %if.else

if.then:                                          ; preds = %entry
  %1 = load ptr, ptr %ip.addr, align 8
  %2 = load i32, ptr %port.addr, align 4
  %call = call ptr @redisConnect(ptr noundef %1, i32 noundef %2)
  store ptr %call, ptr %ctx, align 8
  br label %if.end

if.else:                                          ; preds = %entry
  %3 = load ptr, ptr %hostsocket.addr, align 8
  %call1 = call ptr @redisConnectUnix(ptr noundef %3)
  store ptr %call1, ptr %ctx, align 8
  br label %if.end

if.end:                                           ; preds = %if.else, %if.then
  %4 = load ptr, ptr %ctx, align 8
  %cmp2 = icmp eq ptr %4, null
  br i1 %cmp2, label %if.then3, label %lor.lhs.false

lor.lhs.false:                                    ; preds = %if.end
  %5 = load ptr, ptr %ctx, align 8
  %err = getelementptr inbounds %struct.redisContext, ptr %5, i32 0, i32 1
  %6 = load i32, ptr %err, align 8
  %tobool = icmp ne i32 %6, 0
  br i1 %tobool, label %if.then3, label %if.end13

if.then3:                                         ; preds = %lor.lhs.false, %if.end
  %7 = load ptr, ptr @stderr, align 8
  %call4 = call i32 (ptr, ptr, ...) @fprintf(ptr noundef %7, ptr noundef @.str.16527) #12
  %8 = load ptr, ptr %ctx, align 8
  %cmp6 = icmp ne ptr %8, null
  br i1 %cmp6, label %cond.true, label %cond.false

cond.true:                                        ; preds = %if.then3
  %9 = load ptr, ptr %ctx, align 8
  %errstr = getelementptr inbounds %struct.redisContext, ptr %9, i32 0, i32 2
  %arraydecay = getelementptr inbounds [128 x i8], ptr %errstr, i64 0, i64 0
  br label %cond.end

cond.false:                                       ; preds = %if.then3
  br label %cond.end

cond.end:                                         ; preds = %cond.false, %cond.true
  %cond = phi ptr [ %arraydecay, %cond.true ], [ @.str.16420, %cond.false ]
  store ptr %cond, ptr %err5, align 8
  %10 = load ptr, ptr %hostsocket.addr, align 8
  %cmp7 = icmp eq ptr %10, null
  br i1 %cmp7, label %if.then8, label %if.else10

if.then8:                                         ; preds = %cond.end
  %11 = load ptr, ptr @stderr, align 8
  %12 = load ptr, ptr %ip.addr, align 8
  %13 = load i32, ptr %port.addr, align 4
  %14 = load ptr, ptr %err5, align 8
  %call9 = call i32 (ptr, ptr, ...) @fprintf(ptr noundef %11, ptr noundef @.str.16528, ptr noundef %12, i32 noundef %13, ptr noundef %14) #12
  br label %if.end12

if.else10:                                        ; preds = %cond.end
  %15 = load ptr, ptr @stderr, align 8
  %16 = load ptr, ptr %hostsocket.addr, align 8
  %17 = load ptr, ptr %err5, align 8
  %call11 = call i32 (ptr, ptr, ...) @fprintf(ptr noundef %15, ptr noundef @.str.16529, ptr noundef %16, ptr noundef %17) #12
  br label %if.end12

if.end12:                                         ; preds = %if.else10, %if.then8
  br label %cleanup

if.end13:                                         ; preds = %lor.lhs.false
  %18 = load i32, ptr getelementptr inbounds (%struct.config, ptr @config, i32 0, i32 3), align 8
  %cmp14 = icmp eq i32 %18, 1
  br i1 %cmp14, label %if.then15, label %if.end23

if.then15:                                        ; preds = %if.end13
  store ptr null, ptr %err16, align 8
  %19 = load ptr, ptr %ctx, align 8
  %call17 = call i32 @cliSecureConnection(ptr noundef %19, ptr noundef byval(%struct.cliSSLconfig) align 8 getelementptr inbounds (%struct.config, ptr @config, i32 0, i32 4), ptr noundef %err16)
  %cmp18 = icmp eq i32 %call17, -1
  br i1 %cmp18, label %land.lhs.true, label %if.end22

land.lhs.true:                                    ; preds = %if.then15
  %20 = load ptr, ptr %err16, align 8
  %tobool19 = icmp ne ptr %20, null
  br i1 %tobool19, label %if.then20, label %if.end22

if.then20:                                        ; preds = %land.lhs.true
  %21 = load ptr, ptr @stderr, align 8
  %22 = load ptr, ptr %err16, align 8
  %call21 = call i32 (ptr, ptr, ...) @fprintf(ptr noundef %21, ptr noundef @.str.16530, ptr noundef %22) #12
  br label %cleanup

if.end22:                                         ; preds = %land.lhs.true, %if.then15
  br label %if.end23

if.end23:                                         ; preds = %if.end22, %if.end13
  %23 = load ptr, ptr getelementptr inbounds (%struct.config, ptr @config, i32 0, i32 1, i32 3), align 8
  %cmp24 = icmp eq ptr %23, null
  br i1 %cmp24, label %if.then25, label %if.end26

if.then25:                                        ; preds = %if.end23
  %24 = load ptr, ptr %ctx, align 8
  store ptr %24, ptr %retval, align 8
  br label %return

if.end26:                                         ; preds = %if.end23
  %25 = load ptr, ptr getelementptr inbounds (%struct.config, ptr @config, i32 0, i32 1, i32 4), align 8
  %cmp27 = icmp eq ptr %25, null
  br i1 %cmp27, label %if.then28, label %if.else30

if.then28:                                        ; preds = %if.end26
  %26 = load ptr, ptr %ctx, align 8
  %27 = load ptr, ptr getelementptr inbounds (%struct.config, ptr @config, i32 0, i32 1, i32 3), align 8
  %call29 = call ptr (ptr, ptr, ...) @redisCommand(ptr noundef %26, ptr noundef @.str.16531, ptr noundef %27)
  store ptr %call29, ptr %reply, align 8
  br label %if.end32

if.else30:                                        ; preds = %if.end26
  %28 = load ptr, ptr %ctx, align 8
  %29 = load ptr, ptr getelementptr inbounds (%struct.config, ptr @config, i32 0, i32 1, i32 4), align 8
  %30 = load ptr, ptr getelementptr inbounds (%struct.config, ptr @config, i32 0, i32 1, i32 3), align 8
  %call31 = call ptr (ptr, ptr, ...) @redisCommand(ptr noundef %28, ptr noundef @.str.16532, ptr noundef %29, ptr noundef %30)
  store ptr %call31, ptr %reply, align 8
  br label %if.end32

if.end32:                                         ; preds = %if.else30, %if.then28
  %31 = load ptr, ptr %reply, align 8
  %cmp33 = icmp ne ptr %31, null
  br i1 %cmp33, label %if.then34, label %if.end45

if.then34:                                        ; preds = %if.end32
  %32 = load ptr, ptr %reply, align 8
  %type = getelementptr inbounds %struct.redisReply, ptr %32, i32 0, i32 0
  %33 = load i32, ptr %type, align 8
  %cmp35 = icmp eq i32 %33, 6
  br i1 %cmp35, label %if.then36, label %if.end44

if.then36:                                        ; preds = %if.then34
  %34 = load ptr, ptr %hostsocket.addr, align 8
  %cmp37 = icmp eq ptr %34, null
  br i1 %cmp37, label %if.then38, label %if.else40

if.then38:                                        ; preds = %if.then36
  %35 = load ptr, ptr @stderr, align 8
  %36 = load ptr, ptr %ip.addr, align 8
  %37 = load i32, ptr %port.addr, align 4
  %38 = load ptr, ptr %reply, align 8
  %str = getelementptr inbounds %struct.redisReply, ptr %38, i32 0, i32 4
  %39 = load ptr, ptr %str, align 8
  %call39 = call i32 (ptr, ptr, ...) @fprintf(ptr noundef %35, ptr noundef @.str.16533, ptr noundef %36, i32 noundef %37, ptr noundef %39) #12
  br label %if.end43

if.else40:                                        ; preds = %if.then36
  %40 = load ptr, ptr @stderr, align 8
  %41 = load ptr, ptr %hostsocket.addr, align 8
  %42 = load ptr, ptr %reply, align 8
  %str41 = getelementptr inbounds %struct.redisReply, ptr %42, i32 0, i32 4
  %43 = load ptr, ptr %str41, align 8
  %call42 = call i32 (ptr, ptr, ...) @fprintf(ptr noundef %40, ptr noundef @.str.16534, ptr noundef %41, ptr noundef %43) #12
  br label %if.end43

if.end43:                                         ; preds = %if.else40, %if.then38
  %44 = load ptr, ptr %reply, align 8
  call void @freeReplyObject(ptr noundef %44)
  %45 = load ptr, ptr %ctx, align 8
  call void @redisFree(ptr noundef %45)
  call void @exit(i32 noundef 1) #11
  unreachable

if.end44:                                         ; preds = %if.then34
  %46 = load ptr, ptr %reply, align 8
  call void @freeReplyObject(ptr noundef %46)
  %47 = load ptr, ptr %ctx, align 8
  store ptr %47, ptr %retval, align 8
  br label %return

if.end45:                                         ; preds = %if.end32
  %48 = load ptr, ptr @stderr, align 8
  %call46 = call i32 (ptr, ptr, ...) @fprintf(ptr noundef %48, ptr noundef @.str.16535) #12
  %49 = load ptr, ptr %hostsocket.addr, align 8
  %cmp47 = icmp eq ptr %49, null
  br i1 %cmp47, label %if.then48, label %if.else50

if.then48:                                        ; preds = %if.end45
  %50 = load ptr, ptr @stderr, align 8
  %51 = load ptr, ptr %ip.addr, align 8
  %52 = load i32, ptr %port.addr, align 4
  %call49 = call i32 (ptr, ptr, ...) @fprintf(ptr noundef %50, ptr noundef @.str.16438, ptr noundef %51, i32 noundef %52) #12
  br label %if.end52

if.else50:                                        ; preds = %if.end45
  %53 = load ptr, ptr @stderr, align 8
  %54 = load ptr, ptr %hostsocket.addr, align 8
  %call51 = call i32 (ptr, ptr, ...) @fprintf(ptr noundef %53, ptr noundef @.str.16536, ptr noundef %54) #12
  br label %if.end52

if.end52:                                         ; preds = %if.else50, %if.then48
  br label %cleanup

cleanup:                                          ; preds = %if.end52, %if.then20, %if.end12
  %55 = load ptr, ptr %reply, align 8
  call void @freeReplyObject(ptr noundef %55)
  %56 = load ptr, ptr %ctx, align 8
  call void @redisFree(ptr noundef %56)
  store ptr null, ptr %retval, align 8
  br label %return

return:                                           ; preds = %cleanup, %if.end44, %if.then25
  %57 = load ptr, ptr %retval, align 8
  ret ptr %57
}