; Function Attrs: nounwind uwtable
define internal fastcc ptr @getRedisContext(ptr noundef %ip, i32 noundef %port, ptr noundef %hostsocket) unnamed_addr #0 {
entry:
  %err16 = alloca ptr, align 8
  %cmp = icmp eq ptr %hostsocket, null
  br i1 %cmp, label %if.then, label %if.else

if.then:                                          ; preds = %entry
  %call = tail call ptr @redisConnect(ptr noundef %ip, i32 noundef %port) #22
  br label %if.end

if.else:                                          ; preds = %entry
  %call1 = tail call ptr @redisConnectUnix(ptr noundef nonnull %hostsocket) #22
  br label %if.end

if.end:                                           ; preds = %if.else, %if.then
  %ctx.0 = phi ptr [ %call, %if.then ], [ %call1, %if.else ]
  %cmp2 = icmp eq ptr %ctx.0, null
  br i1 %cmp2, label %if.then3, label %lor.lhs.false

lor.lhs.false:                                    ; preds = %if.end
  %err = getelementptr inbounds i8, ptr %ctx.0, i64 8
  %0 = load i32, ptr %err, align 8
  %tobool.not = icmp eq i32 %0, 0
  br i1 %tobool.not, label %if.end13, label %if.then3

if.then3:                                         ; preds = %lor.lhs.false, %if.end
  %1 = load ptr, ptr @stderr, align 8
  %2 = tail call i64 @fwrite(ptr nonnull @.str.16527, i64 30, i64 1, ptr %1) #24
  %errstr = getelementptr inbounds i8, ptr %ctx.0, i64 12
  %cond = select i1 %cmp2, ptr @.str.16420, ptr %errstr
  %3 = load ptr, ptr @stderr, align 8
  br i1 %cmp, label %if.then8, label %if.else10

if.then8:                                         ; preds = %if.then3
  %call9 = tail call i32 (ptr, ptr, ...) @fprintf(ptr noundef %3, ptr noundef nonnull @.str.16528, ptr noundef %ip, i32 noundef %port, ptr noundef nonnull %cond) #25
  br label %cleanup

if.else10:                                        ; preds = %if.then3
  %call11 = tail call i32 (ptr, ptr, ...) @fprintf(ptr noundef %3, ptr noundef nonnull @.str.16529, ptr noundef nonnull %hostsocket, ptr noundef nonnull %cond) #25
  br label %cleanup

if.end13:                                         ; preds = %lor.lhs.false
  %4 = load i32, ptr getelementptr inbounds (%struct.config, ptr @config, i64 0, i32 3), align 8
  %cmp14 = icmp eq i32 %4, 1
  br i1 %cmp14, label %if.then15, label %if.end23

if.then15:                                        ; preds = %if.end13
  store ptr null, ptr %err16, align 8
  %call17 = call i32 @cliSecureConnection(ptr noundef nonnull %ctx.0, ptr noundef nonnull byval(%struct.cliSSLconfig) align 8 getelementptr inbounds (%struct.config, ptr @config, i64 0, i32 4), ptr noundef nonnull %err16) #22
  %cmp18 = icmp eq i32 %call17, -1
  %5 = load ptr, ptr %err16, align 8
  %tobool19 = icmp ne ptr %5, null
  %or.cond = select i1 %cmp18, i1 %tobool19, i1 false
  br i1 %or.cond, label %if.then20, label %if.end23

if.then20:                                        ; preds = %if.then15
  %6 = load ptr, ptr @stderr, align 8
  %call21 = call i32 (ptr, ptr, ...) @fprintf(ptr noundef %6, ptr noundef nonnull @.str.16530, ptr noundef nonnull %5) #25
  br label %cleanup

if.end23:                                         ; preds = %if.then15, %if.end13
  %7 = load ptr, ptr getelementptr inbounds (%struct.config, ptr @config, i64 0, i32 1, i32 3), align 8
  %cmp24 = icmp eq ptr %7, null
  br i1 %cmp24, label %return, label %if.end26

if.end26:                                         ; preds = %if.end23
  %8 = load ptr, ptr getelementptr inbounds (%struct.config, ptr @config, i64 0, i32 1, i32 4), align 8
  %cmp27 = icmp eq ptr %8, null
  br i1 %cmp27, label %if.then28, label %if.else30

if.then28:                                        ; preds = %if.end26
  %call29 = call ptr (ptr, ptr, ...) @redisCommand(ptr noundef nonnull %ctx.0, ptr noundef nonnull @.str.16531, ptr noundef nonnull %7) #22
  br label %if.end32

if.else30:                                        ; preds = %if.end26
  %call31 = call ptr (ptr, ptr, ...) @redisCommand(ptr noundef nonnull %ctx.0, ptr noundef nonnull @.str.16532, ptr noundef nonnull %8, ptr noundef nonnull %7) #22
  br label %if.end32

if.end32:                                         ; preds = %if.else30, %if.then28
  %reply.0 = phi ptr [ %call29, %if.then28 ], [ %call31, %if.else30 ]
  %cmp33.not = icmp eq ptr %reply.0, null
  br i1 %cmp33.not, label %if.end45, label %if.then34

if.then34:                                        ; preds = %if.end32
  %9 = load i32, ptr %reply.0, align 8
  %cmp35 = icmp eq i32 %9, 6
  br i1 %cmp35, label %if.then36, label %if.end44

if.then36:                                        ; preds = %if.then34
  %10 = load ptr, ptr @stderr, align 8
  %str = getelementptr inbounds i8, ptr %reply.0, i64 32
  %11 = load ptr, ptr %str, align 8
  br i1 %cmp, label %if.then38, label %if.else40

if.then38:                                        ; preds = %if.then36
  %call39 = call i32 (ptr, ptr, ...) @fprintf(ptr noundef %10, ptr noundef nonnull @.str.16533, ptr noundef %ip, i32 noundef %port, ptr noundef %11) #25
  br label %if.end43

if.else40:                                        ; preds = %if.then36
  %call42 = call i32 (ptr, ptr, ...) @fprintf(ptr noundef %10, ptr noundef nonnull @.str.16534, ptr noundef nonnull %hostsocket, ptr noundef %11) #25
  br label %if.end43

if.end43:                                         ; preds = %if.else40, %if.then38
  call void @freeReplyObject(ptr noundef nonnull %reply.0) #22
  call void @redisFree(ptr noundef nonnull %ctx.0) #22
  call void @exit(i32 noundef 1) #23
  unreachable

if.end44:                                         ; preds = %if.then34
  call void @freeReplyObject(ptr noundef nonnull %reply.0) #22
  br label %return

if.end45:                                         ; preds = %if.end32
  %12 = load ptr, ptr @stderr, align 8
  %13 = call i64 @fwrite(ptr nonnull @.str.16535, i64 34, i64 1, ptr %12) #24
  %14 = load ptr, ptr @stderr, align 8
  br i1 %cmp, label %if.then48, label %if.else50

if.then48:                                        ; preds = %if.end45
  %call49 = call i32 (ptr, ptr, ...) @fprintf(ptr noundef %14, ptr noundef nonnull @.str.16438, ptr noundef %ip, i32 noundef %port) #25
  br label %cleanup

if.else50:                                        ; preds = %if.end45
  %call51 = call i32 (ptr, ptr, ...) @fprintf(ptr noundef %14, ptr noundef nonnull @.str.16536, ptr noundef nonnull %hostsocket) #25
  br label %cleanup

cleanup:                                          ; preds = %if.then48, %if.else50, %if.then8, %if.else10, %if.then20
  call void @freeReplyObject(ptr noundef null) #22
  call void @redisFree(ptr noundef %ctx.0) #22
  br label %return

return:                                           ; preds = %if.end23, %cleanup, %if.end44
  %retval.0 = phi ptr [ null, %cleanup ], [ %ctx.0, %if.end44 ], [ %ctx.0, %if.end23 ]
  ret ptr %retval.0
}